target datalayout = "e-m:e-p270:32:32-p271:32:32-p272:64:64-i64:64-i128:128-f80:128-n8:16:32:64-S128"
target triple = "x86_64-pc-linux-gnu"

%"struct.icu_77::FormattedStringBuilder::Field" = type { i8 }
%"struct.icu_77::number::impl::SimpleMicroProps" = type { [4 x i8], %"class.icu_77::number::impl::Grouper", i8, i32, %"class.icu_77::UnicodeString", ptr }
%"class.icu_77::number::impl::Grouper" = type { i16, i16, i16, i32 }
%"class.icu_77::UnicodeString" = type { %"class.icu_77::Replaceable", %"union.icu_77::UnicodeString::StackBufferOrFields" }
%"class.icu_77::Replaceable" = type { %"class.icu_77::UObject" }
%"class.icu_77::UObject" = type { ptr }
%"union.icu_77::UnicodeString::StackBufferOrFields" = type { %struct.anon.0, [32 x i8] }
%struct.anon.0 = type { i16, i32, i32, ptr }
%"class.icu_77::Locale" = type <{ %"class.icu_77::UObject", [12 x i8], [6 x i8], [4 x i8], [2 x i8], i32, [4 x i8], ptr, [157 x i8], [3 x i8], ptr, i8, [7 x i8] }>
%"class.icu_77::DecimalFormatSymbols" = type <{ %"class.icu_77::UObject", [29 x %"class.icu_77::UnicodeString"], %"class.icu_77::UnicodeString", i32, [4 x i8], %"class.icu_77::Locale", ptr, ptr, ptr, [3 x %"class.icu_77::UnicodeString"], [3 x %"class.icu_77::UnicodeString"], i8, i8, [9 x i8], [5 x i8] }>

; Function Attrs: inlinehint mustprogress nounwind uwtable
define linkonce_odr noundef nonnull align 8 dereferenceable(64) ptr @_ZNK6icu_7720DecimalFormatSymbols19getConstDigitSymbolEi(ptr noundef nonnull align 8 dereferenceable(2579) %0, i32 noundef %1) #2 comdat align 2 {
  %3 = alloca ptr, align 8
  %4 = alloca ptr, align 8
  %5 = alloca i32, align 4
  %6 = alloca i32, align 4
  store ptr %0, ptr %4, align 8, !tbaa !158
  store i32 %1, ptr %5, align 4, !tbaa !14
  %7 = load ptr, ptr %4, align 8
  %8 = load i32, ptr %5, align 4, !tbaa !14
  %9 = icmp slt i32 %8, 0
  br i1 %9, label %13, label %10

10:                                               ; preds = %2
  %11 = load i32, ptr %5, align 4, !tbaa !14
  %12 = icmp sgt i32 %11, 9
  br i1 %12, label %13, label %14

13:                                               ; preds = %10, %2
  store i32 0, ptr %5, align 4, !tbaa !14
  br label %14

14:                                               ; preds = %13, %10
  %15 = load i32, ptr %5, align 4, !tbaa !14
  %16 = icmp eq i32 %15, 0
  br i1 %16, label %17, label %20

17:                                               ; preds = %14
  %18 = getelementptr inbounds nuw %"class.icu_77::DecimalFormatSymbols", ptr %7, i32 0, i32 1
  %19 = getelementptr inbounds nuw [29 x %"class.icu_77::UnicodeString"], ptr %18, i64 0, i64 4
  store ptr %19, ptr %3, align 8
  br label %28

20:                                               ; preds = %14
  call void @llvm.lifetime.start.p0(i64 4, ptr %6) #14
  %21 = load i32, ptr %5, align 4, !tbaa !14
  %22 = add nsw i32 18, %21
  %23 = sub nsw i32 %22, 1
  store i32 %23, ptr %6, align 4, !tbaa !329
  %24 = getelementptr inbounds nuw %"class.icu_77::DecimalFormatSymbols", ptr %7, i32 0, i32 1
  %25 = load i32, ptr %6, align 4, !tbaa !329
  %26 = zext i32 %25 to i64
  %27 = getelementptr inbounds nuw [29 x %"class.icu_77::UnicodeString"], ptr %24, i64 0, i64 %26
  store ptr %27, ptr %3, align 8
  call void @llvm.lifetime.end.p0(i64 4, ptr %6) #14
  br label %28

28:                                               ; preds = %20, %17
  %29 = load ptr, ptr %3, align 8
  ret ptr %29
}

; Function Attrs: inlinehint mustprogress nounwind uwtable
define linkonce_odr noundef i32 @_ZNK6icu_7720DecimalFormatSymbols16getCodePointZeroEv(ptr noundef nonnull align 8 dereferenceable(2579) %0) #2 comdat align 2 {
  %2 = alloca ptr, align 8
  store ptr %0, ptr %2, align 8, !tbaa !158
  %3 = load ptr, ptr %2, align 8
  %4 = getelementptr inbounds nuw %"class.icu_77::DecimalFormatSymbols", ptr %3, i32 0, i32 3
  %5 = load i32, ptr %4, align 8, !tbaa !423
  ret i32 %5
}

; Function Attrs: inlinehint mustprogress uwtable
define linkonce_odr noundef i32 @_ZN6icu_776number4impl5utils22insertDigitFromSymbolsERNS_22FormattedStringBuilderEiaRKNS_20DecimalFormatSymbolsENS3_5FieldER10UErrorCode(ptr noundef nonnull align 8 dereferenceable(136) %0, i32 noundef %1, i8 noundef signext %2, ptr noundef nonnull align 8 dereferenceable(2579) %3, i8 %4, ptr noundef nonnull align 4 dereferenceable(4) %5) #3 comdat {
  %7 = alloca i32, align 4
  %8 = alloca %"struct.icu_77::FormattedStringBuilder::Field", align 1
  %9 = alloca ptr, align 8
  %10 = alloca i32, align 4
  %11 = alloca i8, align 1
  %12 = alloca ptr, align 8
  %13 = alloca ptr, align 8
  %14 = alloca %"struct.icu_77::FormattedStringBuilder::Field", align 1
  %15 = alloca %"struct.icu_77::FormattedStringBuilder::Field", align 1
  %16 = getelementptr inbounds nuw %"struct.icu_77::FormattedStringBuilder::Field", ptr %8, i32 0, i32 0
  store i8 %4, ptr %16, align 1
  store ptr %0, ptr %9, align 8, !tbaa !111
  store i32 %1, ptr %10, align 4, !tbaa !14
  store i8 %2, ptr %11, align 1, !tbaa !202
  store ptr %3, ptr %12, align 8, !tbaa !158
  store ptr %5, ptr %13, align 8, !tbaa !22
  %17 = load ptr, ptr %12, align 8, !tbaa !158
  %18 = call noundef i32 @_ZNK6icu_7720DecimalFormatSymbols16getCodePointZeroEv(ptr noundef nonnull align 8 dereferenceable(2579) %17)
  %19 = icmp ne i32 %18, -1
  br i1 %19, label %20, label %32

20:                                               ; preds = %6
  %21 = load ptr, ptr %9, align 8, !tbaa !111
  %22 = load i32, ptr %10, align 4, !tbaa !14
  %23 = load ptr, ptr %12, align 8, !tbaa !158
  %24 = call noundef i32 @_ZNK6icu_7720DecimalFormatSymbols16getCodePointZeroEv(ptr noundef nonnull align 8 dereferenceable(2579) %23)
  %25 = load i8, ptr %11, align 1, !tbaa !202
  %26 = sext i8 %25 to i32
  %27 = add nsw i32 %24, %26
  call void @llvm.memcpy.p0.p0.i64(ptr align 1 %14, ptr align 1 %8, i64 1, i1 false), !tbaa.struct !219
  %28 = load ptr, ptr %13, align 8, !tbaa !22
  %29 = getelementptr inbounds nuw %"struct.icu_77::FormattedStringBuilder::Field", ptr %14, i32 0, i32 0
  %30 = load i8, ptr %29, align 1
  %31 = call noundef i32 @_ZN6icu_7722FormattedStringBuilder15insertCodePointEiiNS0_5FieldER10UErrorCode(ptr noundef nonnull align 8 dereferenceable(136) %21, i32 noundef %22, i32 noundef %27, i8 %30, ptr noundef nonnull align 4 dereferenceable(4) %28)
  store i32 %31, ptr %7, align 4
  br label %43

32:                                               ; preds = %6
  %33 = load ptr, ptr %9, align 8, !tbaa !111
  %34 = load i32, ptr %10, align 4, !tbaa !14
  %35 = load ptr, ptr %12, align 8, !tbaa !158
  %36 = load i8, ptr %11, align 1, !tbaa !202
  %37 = sext i8 %36 to i32
  %38 = call noundef nonnull align 8 dereferenceable(64) ptr @_ZNK6icu_7720DecimalFormatSymbols19getConstDigitSymbolEi(ptr noundef nonnull align 8 dereferenceable(2579) %35, i32 noundef %37)
  call void @llvm.memcpy.p0.p0.i64(ptr align 1 %15, ptr align 1 %8, i64 1, i1 false), !tbaa.struct !219
  %39 = load ptr, ptr %13, align 8, !tbaa !22
  %40 = getelementptr inbounds nuw %"struct.icu_77::FormattedStringBuilder::Field", ptr %15, i32 0, i32 0
  %41 = load i8, ptr %40, align 1
  %42 = call noundef i32 @_ZN6icu_7722FormattedStringBuilder6insertEiRKNS_13UnicodeStringENS0_5FieldER10UErrorCode(ptr noundef nonnull align 8 dereferenceable(136) %33, i32 noundef %34, ptr noundef nonnull align 8 dereferenceable(64) %38, i8 %41, ptr noundef nonnull align 4 dereferenceable(4) %39)
  store i32 %42, ptr %7, align 4
  br label %43

43:                                               ; preds = %32, %20
  %44 = load i32, ptr %7, align 4
  ret i32 %44
}

; Function Attrs: mustprogress nounwind uwtable
define linkonce_odr void @_ZN6icu_7722FormattedStringBuilder5FieldC2Ehh(ptr noundef nonnull align 1 dereferenceable(1) %0, i8 noundef zeroext %1, i8 noundef zeroext %2) unnamed_addr #0 comdat align 2 {
  %4 = alloca ptr, align 8
  %5 = alloca i8, align 1
  %6 = alloca i8, align 1
  store ptr %0, ptr %4, align 8, !tbaa !331
  store i8 %1, ptr %5, align 1, !tbaa !202
  store i8 %2, ptr %6, align 1, !tbaa !202
  %7 = load ptr, ptr %4, align 8
  %8 = getelementptr inbounds nuw %"struct.icu_77::FormattedStringBuilder::Field", ptr %7, i32 0, i32 0
  %9 = load i8, ptr %5, align 1, !tbaa !202
  %10 = zext i8 %9 to i32
  %11 = shl i32 %10, 4
  %12 = load i8, ptr %6, align 1, !tbaa !202
  %13 = zext i8 %12 to i32
  %14 = or i32 %11, %13
  %15 = trunc i32 %14 to i8
  store i8 %15, ptr %8, align 1, !tbaa !333
  ret void
}

; Function Attrs: mustprogress uwtable
define noundef i32 @_ZN6icu_776number4impl19NumberFormatterImpl19writeFractionDigitsERKNS1_16SimpleMicroPropsERNS1_15DecimalQuantityERNS_22FormattedStringBuilderEiR10UErrorCode(ptr noundef nonnull align 8 dereferenceable(96) %0, ptr noundef nonnull align 8 dereferenceable(66) %1, ptr noundef nonnull align 8 dereferenceable(136) %2, i32 noundef %3, ptr noundef nonnull align 4 dereferenceable(4) %4) #1 align 2 {
  %6 = alloca ptr, align 8
  %7 = alloca ptr, align 8
  %8 = alloca ptr, align 8
  %9 = alloca i32, align 4
  %10 = alloca ptr, align 8
  %11 = alloca i32, align 4
  %12 = alloca i32, align 4
  %13 = alloca i32, align 4
  %14 = alloca i8, align 1
  %15 = alloca %"struct.icu_77::FormattedStringBuilder::Field", align 1
  store ptr %0, ptr %6, align 8, !tbaa !130
  store ptr %1, ptr %7, align 8, !tbaa !109
  store ptr %2, ptr %8, align 8, !tbaa !111
  store i32 %3, ptr %9, align 4, !tbaa !14
  store ptr %4, ptr %10, align 8, !tbaa !22
  call void @llvm.lifetime.start.p0(i64 4, ptr %11) #14
  store i32 0, ptr %11, align 4, !tbaa !14
  call void @llvm.lifetime.start.p0(i64 4, ptr %12) #14
  %16 = load ptr, ptr %7, align 8, !tbaa !109
  %17 = call noundef i32 @_ZNK6icu_776number4impl15DecimalQuantity24getLowerDisplayMagnitudeEv(ptr noundef nonnull align 8 dereferenceable(66) %16)
  %18 = sub nsw i32 0, %17
  store i32 %18, ptr %12, align 4, !tbaa !14
  call void @llvm.lifetime.start.p0(i64 4, ptr %13) #14
  store i32 0, ptr %13, align 4, !tbaa !14
  br label %19

19:                                               ; preds = %44, %5
  %20 = load i32, ptr %13, align 4, !tbaa !14
  %21 = load i32, ptr %12, align 4, !tbaa !14
  %22 = icmp slt i32 %20, %21
  br i1 %22, label %24, label %23

23:                                               ; preds = %19
  call void @llvm.lifetime.end.p0(i64 4, ptr %13) #14
  br label %47

24:                                               ; preds = %19
  call void @llvm.lifetime.start.p0(i64 1, ptr %14) #14
  %25 = load ptr, ptr %7, align 8, !tbaa !109
  %26 = load i32, ptr %13, align 4, !tbaa !14
  %27 = sub nsw i32 0, %26
  %28 = sub nsw i32 %27, 1
  %29 = call noundef signext i8 @_ZNK6icu_776number4impl15DecimalQuantity8getDigitEi(ptr noundef nonnull align 8 dereferenceable(66) %25, i32 noundef %28)
  store i8 %29, ptr %14, align 1, !tbaa !202
  %30 = load ptr, ptr %8, align 8, !tbaa !111
  %31 = load i32, ptr %11, align 4, !tbaa !14
  %32 = load i32, ptr %9, align 4, !tbaa !14
  %33 = add nsw i32 %31, %32
  %34 = load i8, ptr %14, align 1, !tbaa !202
  %35 = load ptr, ptr %6, align 8, !tbaa !130
  %36 = getelementptr inbounds nuw %"struct.icu_77::number::impl::SimpleMicroProps", ptr %35, i32 0, i32 5
  %37 = load ptr, ptr %36, align 8, !tbaa !132
  call void @_ZN6icu_7722FormattedStringBuilder5FieldC2Ehh(ptr noundef nonnull align 1 dereferenceable(1) %15, i8 noundef zeroext 2, i8 noundef zeroext 1)
  %38 = load ptr, ptr %10, align 8, !tbaa !22
  %39 = getelementptr inbounds nuw %"struct.icu_77::FormattedStringBuilder::Field", ptr %15, i32 0, i32 0
  %40 = load i8, ptr %39, align 1
  %41 = call noundef i32 @_ZN6icu_776number4impl5utils22insertDigitFromSymbolsERNS_22FormattedStringBuilderEiaRKNS_20DecimalFormatSymbolsENS3_5FieldER10UErrorCode(ptr noundef nonnull align 8 dereferenceable(136) %30, i32 noundef %33, i8 noundef signext %34, ptr noundef nonnull align 8 dereferenceable(2579) %37, i8 %40, ptr noundef nonnull align 4 dereferenceable(4) %38)
  %42 = load i32, ptr %11, align 4, !tbaa !14
  %43 = add nsw i32 %42, %41
  store i32 %43, ptr %11, align 4, !tbaa !14
  call void @llvm.lifetime.end.p0(i64 1, ptr %14) #14
  br label %44

44:                                               ; preds = %24
  %45 = load i32, ptr %13, align 4, !tbaa !14
  %46 = add nsw i32 %45, 1
  store i32 %46, ptr %13, align 4, !tbaa !14
  br label %19, !llvm.loop !336

47:                                               ; preds = %23
  %48 = load i32, ptr %11, align 4, !tbaa !14
  call void @llvm.lifetime.end.p0(i64 4, ptr %12) #14
  call void @llvm.lifetime.end.p0(i64 4, ptr %11) #14
  ret i32 %48
}