; Function Attrs: mustprogress uwtable
define noundef i32 @_ZN6icu_776number4impl19NumberFormatterImpl19writeFractionDigitsERKNS1_16SimpleMicroPropsERNS1_15DecimalQuantityERNS_22FormattedStringBuilderEiR10UErrorCode(ptr noundef nonnull readonly align 8 captures(none) dereferenceable(96) %0, ptr noundef nonnull align 8 dereferenceable(66) %1, ptr noundef nonnull align 8 dereferenceable(136) %2, i32 noundef %3, ptr noundef nonnull align 4 dereferenceable(4) %4) local_unnamed_addr #1 align 2 {
  %6 = tail call noundef i32 @_ZNK6icu_776number4impl15DecimalQuantity24getLowerDisplayMagnitudeEv(ptr noundef nonnull align 8 dereferenceable(66) %1)
  %7 = icmp slt i32 %6, 0
  br i1 %7, label %.lr.ph, label %._crit_edge

.lr.ph:                                           ; preds = %5
  %8 = sub i32 0, %6
  %9 = getelementptr inbounds nuw i8, ptr %0, i64 88
  %smax = tail call i32 @llvm.smax.i32(i32 %8, i32 1)
  br label %10

._crit_edge:                                      ; preds = %_ZN6icu_776number4impl5utils22insertDigitFromSymbolsERNS_22FormattedStringBuilderEiaRKNS_20DecimalFormatSymbolsENS3_5FieldER10UErrorCode.exit, %5
  %.0.lcssa = phi i32 [ 0, %5 ], [ %30, %_ZN6icu_776number4impl5utils22insertDigitFromSymbolsERNS_22FormattedStringBuilderEiaRKNS_20DecimalFormatSymbolsENS3_5FieldER10UErrorCode.exit ]
  ret i32 %.0.lcssa

10:                                               ; preds = %.lr.ph, %_ZN6icu_776number4impl5utils22insertDigitFromSymbolsERNS_22FormattedStringBuilderEiaRKNS_20DecimalFormatSymbolsENS3_5FieldER10UErrorCode.exit
  %.015 = phi i32 [ 0, %.lr.ph ], [ %30, %_ZN6icu_776number4impl5utils22insertDigitFromSymbolsERNS_22FormattedStringBuilderEiaRKNS_20DecimalFormatSymbolsENS3_5FieldER10UErrorCode.exit ]
  %.01314 = phi i32 [ 0, %.lr.ph ], [ %31, %_ZN6icu_776number4impl5utils22insertDigitFromSymbolsERNS_22FormattedStringBuilderEiaRKNS_20DecimalFormatSymbolsENS3_5FieldER10UErrorCode.exit ]
  %11 = xor i32 %.01314, -1
  %12 = tail call noundef signext i8 @_ZNK6icu_776number4impl15DecimalQuantity8getDigitEi(ptr noundef nonnull align 8 dereferenceable(66) %1, i32 noundef %11)
  %13 = add nsw i32 %.015, %3
  %14 = load ptr, ptr %9, align 8, !tbaa !121
  %15 = getelementptr inbounds nuw i8, ptr %14, i64 1928
  %16 = load i32, ptr %15, align 8, !tbaa !126
  %.not.i = icmp eq i32 %16, -1
  %17 = sext i8 %12 to i32
  br i1 %.not.i, label %21, label %18

18:                                               ; preds = %10
  %19 = add nsw i32 %16, %17
  %20 = tail call noundef i32 @_ZN6icu_7722FormattedStringBuilder15insertCodePointEiiNS0_5FieldER10UErrorCode(ptr noundef nonnull align 8 dereferenceable(136) %2, i32 noundef %13, i32 noundef %19, i8 33, ptr noundef nonnull align 4 dereferenceable(4) %4)
  br label %_ZN6icu_776number4impl5utils22insertDigitFromSymbolsERNS_22FormattedStringBuilderEiaRKNS_20DecimalFormatSymbolsENS3_5FieldER10UErrorCode.exit

21:                                               ; preds = %10
  %22 = add nsw i32 %17, -10
  %23 = icmp ult i32 %22, -9
  %24 = getelementptr inbounds nuw i8, ptr %14, i64 264
  %25 = add nuw nsw i32 %17, 17
  %26 = getelementptr inbounds nuw i8, ptr %14, i64 8
  %27 = zext nneg i32 %25 to i64
  %28 = getelementptr inbounds nuw [29 x %"class.icu_77::UnicodeString"], ptr %26, i64 0, i64 %27
  %.0.i.i = select i1 %23, ptr %24, ptr %28
  %29 = tail call noundef i32 @_ZN6icu_7722FormattedStringBuilder6insertEiRKNS_13UnicodeStringENS0_5FieldER10UErrorCode(ptr noundef nonnull align 8 dereferenceable(136) %2, i32 noundef %13, ptr noundef nonnull align 8 dereferenceable(64) %.0.i.i, i8 33, ptr noundef nonnull align 4 dereferenceable(4) %4)
  br label %_ZN6icu_776number4impl5utils22insertDigitFromSymbolsERNS_22FormattedStringBuilderEiaRKNS_20DecimalFormatSymbolsENS3_5FieldER10UErrorCode.exit

_ZN6icu_776number4impl5utils22insertDigitFromSymbolsERNS_22FormattedStringBuilderEiaRKNS_20DecimalFormatSymbolsENS3_5FieldER10UErrorCode.exit: ; preds = %18, %21
  %.0.i = phi i32 [ %20, %18 ], [ %29, %21 ]
  %30 = add nsw i32 %.0.i, %.015
  %31 = add nuw nsw i32 %.01314, 1
  %exitcond.not = icmp eq i32 %31, %smax
  br i1 %exitcond.not, label %._crit_edge, label %10, !llvm.loop !131
}